target datalayout = "e-m:e-p270:32:32-p271:32:32-p272:64:64-i64:64-i128:128-f80:128-n8:16:32:64-S128"
target triple = "x86_64-pc-linux-gnu"

%struct.CastContext = type { ptr, ptr, ptr, ptr, ptr, i32, i32 }
%struct.Expr_ = type { ptr, %union.SourceSpan, i16, %union.anon.29 }
%union.SourceSpan = type { i64 }
%union.anon.29 = type { %struct.ExprAnySwitch }
%struct.ExprAnySwitch = type { i8, %union.anon.31 }
%union.anon.31 = type { %struct.anon.32 }
%struct.anon.32 = type { ptr, %union.SourceSpan, ptr }

@.str.15 = private unnamed_addr constant [122 x i8] c"This conversion requires an explicit cast to %s, because the widening of the expression may be done in more than one way.\00", align 1

; Function Attrs: nounwind uwtable
define internal zeroext i1 @rule_int_to_float(ptr noundef %0, i1 noundef zeroext %1, i1 noundef zeroext %2) #0 {
  %4 = alloca i1, align 1
  %5 = alloca ptr, align 8
  %6 = alloca i8, align 1
  %7 = alloca i8, align 1
  %8 = alloca ptr, align 8
  store ptr %0, ptr %5, align 8
  %9 = zext i1 %1 to i8
  store i8 %9, ptr %6, align 1
  %10 = zext i1 %2 to i8
  store i8 %10, ptr %7, align 1
  %11 = load i8, ptr %6, align 1
  %12 = trunc i8 %11 to i1
  br i1 %12, label %13, label %14

13:                                               ; preds = %3
  store i1 true, ptr %4, align 1
  br label %36

14:                                               ; preds = %3
  %15 = load ptr, ptr %5, align 8
  %16 = getelementptr inbounds %struct.CastContext, ptr %15, i32 0, i32 1
  %17 = load ptr, ptr %16, align 8
  store ptr %17, ptr %8, align 8
  %18 = load ptr, ptr %8, align 8
  %19 = call zeroext i1 @expr_is_simple(ptr noundef %18, i1 noundef zeroext true)
  br i1 %19, label %35, label %20

20:                                               ; preds = %14
  %21 = load i8, ptr %7, align 1
  %22 = trunc i8 %21 to i1
  br i1 %22, label %23, label %24

23:                                               ; preds = %20
  store i1 false, ptr %4, align 1
  br label %36

24:                                               ; preds = %20
  br label %25

25:                                               ; preds = %24
  %26 = load ptr, ptr %8, align 8
  %27 = getelementptr inbounds %struct.Expr_, ptr %26, i32 0, i32 1
  %28 = load ptr, ptr %5, align 8
  %29 = getelementptr inbounds %struct.CastContext, ptr %28, i32 0, i32 3
  %30 = load ptr, ptr %29, align 8
  %31 = call ptr @type_quoted_error_string(ptr noundef %30)
  %32 = getelementptr inbounds %union.SourceSpan, ptr %27, i32 0, i32 0
  %33 = load i64, ptr %32, align 8
  call void (i64, ptr, ...) @sema_error_at(i64 %33, ptr noundef @.str.15, ptr noundef %31)
  store i1 false, ptr %4, align 1
  br label %36

34:                                               ; No predecessors!
  br label %35

35:                                               ; preds = %34, %14
  store i1 true, ptr %4, align 1
  br label %36

36:                                               ; preds = %35, %25, %23, %13
  %37 = load i1, ptr %4, align 1
  ret i1 %37
}