; Function Attrs: nounwind uwtable
define internal zeroext i1 @rule_int_to_float(ptr nocapture noundef readonly %0, i1 noundef zeroext %1, i1 noundef zeroext %2) #0 {
  br i1 %1, label %14, label %4

4:                                                ; preds = %3
  %5 = getelementptr inbounds i8, ptr %0, i64 8
  %6 = load ptr, ptr %5, align 8
  %7 = tail call zeroext i1 @expr_is_simple(ptr noundef %6, i1 noundef zeroext true) #10
  %brmerge = or i1 %7, %2
  br i1 %brmerge, label %14, label %8

8:                                                ; preds = %4
  %9 = getelementptr inbounds i8, ptr %6, i64 8
  %10 = getelementptr inbounds i8, ptr %0, i64 24
  %11 = load ptr, ptr %10, align 8
  %12 = tail call ptr @type_quoted_error_string(ptr noundef %11) #10
  %13 = load i64, ptr %9, align 8
  tail call void (i64, ptr, ...) @sema_error_at(i64 %13, ptr noundef nonnull @.str.15, ptr noundef %12) #10
  br label %14

14:                                               ; preds = %4, %3, %8
  %.0 = phi i1 [ false, %8 ], [ true, %3 ], [ %7, %4 ]
  ret i1 %.0
}